target datalayout = "e-m:e-p270:32:32-p271:32:32-p272:64:64-i64:64-i128:128-f80:128-n8:16:32:64-S128"
target triple = "x86_64-pc-linux-gnu"

%"class.google::protobuf::internal::LogMessage" = type { i32, ptr, i32, %"class.std::__cxx11::basic_string" }
%"class.std::__cxx11::basic_string" = type { %"struct.std::__cxx11::basic_string<char>::_Alloc_hider", i64, %union.anon }
%"struct.std::__cxx11::basic_string<char>::_Alloc_hider" = type { ptr }
%union.anon = type { i64, [8 x i8] }
%"class.google::protobuf::internal::LogFinisher" = type { i8 }
%"struct.google::protobuf::Metadata" = type { ptr, ptr }
%"class.google::protobuf::Descriptor" = type { %"class.google::protobuf::internal::SymbolBase", i8, i16, i32, ptr, ptr, ptr, ptr, ptr, ptr, ptr, ptr, ptr, ptr, ptr, ptr, i32, i32, i32, i32, i32, i32, i32, i32 }
%"class.google::protobuf::internal::SymbolBase" = type { i8 }

@.str = private unnamed_addr constant [140 x i8] c"generated/home/dtcxzyw/WorkSpace/Projects/compilers/llvm-opt-benchmark/bench/opencv/opencv/3rdparty/protobuf/src/google/protobuf/message.cc\00", align 1
@.str.9 = private unnamed_addr constant [16 x i8] c"Message class \22\00", align 1
@.str.10 = private unnamed_addr constant [87 x i8] c"\22 implements neither SetCachedSize() nor ByteSize().  Must implement one or the other.\00", align 1

; Function Attrs: inlinehint mustprogress nounwind uwtable
define linkonce_odr hidden noundef nonnull align 8 dereferenceable(32) ptr @_ZNK6google8protobuf10Descriptor9full_nameB5cxx11Ev(ptr noundef nonnull align 8 dereferenceable(136) %0) #6 comdat align 2 {
  %2 = alloca ptr, align 8
  store ptr %0, ptr %2, align 8, !tbaa !18
  %3 = load ptr, ptr %2, align 8
  %4 = getelementptr inbounds nuw %"class.google::protobuf::Descriptor", ptr %3, i32 0, i32 4
  %5 = load ptr, ptr %4, align 8, !tbaa !23
  %6 = getelementptr inbounds %"class.std::__cxx11::basic_string", ptr %5, i64 1
  ret ptr %6
}

; Function Attrs: mustprogress uwtable
define linkonce_odr hidden noundef ptr @_ZNK6google8protobuf7Message13GetDescriptorEv(ptr noundef nonnull align 8 dereferenceable(16) %0) #4 comdat align 2 {
  %2 = alloca ptr, align 8
  %3 = alloca %"struct.google::protobuf::Metadata", align 8
  store ptr %0, ptr %2, align 8, !tbaa !3
  %4 = load ptr, ptr %2, align 8
  call void @llvm.lifetime.start.p0(i64 16, ptr %3) #3
  %5 = load ptr, ptr %4, align 8, !tbaa !8
  %6 = getelementptr inbounds ptr, ptr %5, i64 17
  %7 = load ptr, ptr %6, align 8
  %8 = call { ptr, ptr } %7(ptr noundef nonnull align 8 dereferenceable(16) %4)
  %9 = getelementptr inbounds nuw { ptr, ptr }, ptr %3, i32 0, i32 0
  %10 = extractvalue { ptr, ptr } %8, 0
  store ptr %10, ptr %9, align 8
  %11 = getelementptr inbounds nuw { ptr, ptr }, ptr %3, i32 0, i32 1
  %12 = extractvalue { ptr, ptr } %8, 1
  store ptr %12, ptr %11, align 8
  %13 = getelementptr inbounds nuw %"struct.google::protobuf::Metadata", ptr %3, i32 0, i32 0
  %14 = load ptr, ptr %13, align 8, !tbaa !20
  call void @llvm.lifetime.end.p0(i64 16, ptr %3) #3
  ret ptr %14
}

; Function Attrs: mustprogress uwtable
define hidden void @_ZNK6google8protobuf7Message13SetCachedSizeEi(ptr noundef nonnull align 8 dereferenceable(16) %0, i32 noundef %1) unnamed_addr #4 align 2 personality ptr @__gxx_personality_v0 {
  %3 = alloca ptr, align 8
  %4 = alloca i32, align 4
  %5 = alloca %"class.google::protobuf::internal::LogMessage", align 8
  %6 = alloca ptr, align 8
  %7 = alloca i32, align 4
  %8 = alloca %"class.google::protobuf::internal::LogFinisher", align 1
  store ptr %0, ptr %3, align 8, !tbaa !3
  store i32 %1, ptr %4, align 4, !tbaa !55
  %9 = load ptr, ptr %3, align 8
  call void @llvm.lifetime.start.p0(i64 56, ptr %5) #3
  call void @_ZN6google8protobuf8internal10LogMessageC1ENS0_8LogLevelEPKci(ptr noundef nonnull align 8 dereferenceable(56) %5, i32 noundef 3, ptr noundef @.str, i32 noundef 181)
  %10 = invoke noundef nonnull align 8 dereferenceable(56) ptr @_ZN6google8protobuf8internal10LogMessagelsEPKc(ptr noundef nonnull align 8 dereferenceable(56) %5, ptr noundef @.str.9)
          to label %11 unwind label %21

11:                                               ; preds = %2
  %12 = invoke noundef ptr @_ZNK6google8protobuf7Message13GetDescriptorEv(ptr noundef nonnull align 8 dereferenceable(16) %9)
          to label %13 unwind label %21

13:                                               ; preds = %11
  %14 = invoke noundef nonnull align 8 dereferenceable(32) ptr @_ZNK6google8protobuf10Descriptor9full_nameB5cxx11Ev(ptr noundef nonnull align 8 dereferenceable(136) %12)
          to label %15 unwind label %21

15:                                               ; preds = %13
  %16 = invoke noundef nonnull align 8 dereferenceable(56) ptr @_ZN6google8protobuf8internal10LogMessagelsERKNSt7__cxx1112basic_stringIcSt11char_traitsIcESaIcEEE(ptr noundef nonnull align 8 dereferenceable(56) %10, ptr noundef nonnull align 8 dereferenceable(32) %14)
          to label %17 unwind label %21

17:                                               ; preds = %15
  %18 = invoke noundef nonnull align 8 dereferenceable(56) ptr @_ZN6google8protobuf8internal10LogMessagelsEPKc(ptr noundef nonnull align 8 dereferenceable(56) %16, ptr noundef @.str.10)
          to label %19 unwind label %21

19:                                               ; preds = %17
  call void @llvm.lifetime.start.p0(i64 1, ptr %8) #3
  invoke void @_ZN6google8protobuf8internal11LogFinisheraSERNS1_10LogMessageE(ptr noundef nonnull align 1 dereferenceable(1) %8, ptr noundef nonnull align 8 dereferenceable(56) %18)
          to label %20 unwind label %25

20:                                               ; preds = %19
  call void @llvm.lifetime.end.p0(i64 1, ptr %8) #3
  call void @_ZN6google8protobuf8internal10LogMessageD1Ev(ptr noundef nonnull align 8 dereferenceable(56) %5) #3
  call void @llvm.lifetime.end.p0(i64 56, ptr %5) #3
  ret void

21:                                               ; preds = %17, %15, %13, %11, %2
  %22 = landingpad { ptr, i32 }
          cleanup
  %23 = extractvalue { ptr, i32 } %22, 0
  store ptr %23, ptr %6, align 8
  %24 = extractvalue { ptr, i32 } %22, 1
  store i32 %24, ptr %7, align 4
  br label %29

25:                                               ; preds = %19
  %26 = landingpad { ptr, i32 }
          cleanup
  %27 = extractvalue { ptr, i32 } %26, 0
  store ptr %27, ptr %6, align 8
  %28 = extractvalue { ptr, i32 } %26, 1
  store i32 %28, ptr %7, align 4
  call void @llvm.lifetime.end.p0(i64 1, ptr %8) #3
  br label %29

29:                                               ; preds = %25, %21
  call void @_ZN6google8protobuf8internal10LogMessageD1Ev(ptr noundef nonnull align 8 dereferenceable(56) %5) #3
  call void @llvm.lifetime.end.p0(i64 56, ptr %5) #3
  br label %30

30:                                               ; preds = %29
  %31 = load ptr, ptr %6, align 8
  %32 = load i32, ptr %7, align 4
  %33 = insertvalue { ptr, i32 } poison, ptr %31, 0
  %34 = insertvalue { ptr, i32 } %33, i32 %32, 1
  resume { ptr, i32 } %34
}