; Function Attrs: mustprogress uwtable
define hidden void @_ZNK6google8protobuf7Message13SetCachedSizeEi(ptr noundef nonnull align 8 dereferenceable(16) %0, i32 %1) unnamed_addr #3 align 2 personality ptr @__gxx_personality_v0 {
  %3 = alloca %"class.google::protobuf::internal::LogMessage", align 8
  %4 = alloca %"class.google::protobuf::internal::LogFinisher", align 1
  call void @llvm.lifetime.start.p0(i64 56, ptr nonnull %3) #25
  call void @_ZN6google8protobuf8internal10LogMessageC1ENS0_8LogLevelEPKci(ptr noundef nonnull align 8 dereferenceable(56) %3, i32 noundef 3, ptr noundef nonnull @.str, i32 noundef 181)
  %5 = invoke noundef nonnull align 8 dereferenceable(56) ptr @_ZN6google8protobuf8internal10LogMessagelsEPKc(ptr noundef nonnull align 8 dereferenceable(56) %3, ptr noundef nonnull @.str.9)
          to label %6 unwind label %21

6:                                                ; preds = %2
  %7 = load ptr, ptr %0, align 8, !tbaa !3
  %8 = getelementptr inbounds nuw i8, ptr %7, i64 136
  %9 = load ptr, ptr %8, align 8
  %10 = invoke { ptr, ptr } %9(ptr noundef nonnull align 8 dereferenceable(16) %0)
          to label %11 unwind label %21

11:                                               ; preds = %6
  %12 = extractvalue { ptr, ptr } %10, 0
  %13 = getelementptr inbounds nuw i8, ptr %12, i64 8
  %14 = load ptr, ptr %13, align 8, !tbaa !11
  %15 = getelementptr inbounds nuw i8, ptr %14, i64 32
  %16 = invoke noundef nonnull align 8 dereferenceable(56) ptr @_ZN6google8protobuf8internal10LogMessagelsERKNSt7__cxx1112basic_stringIcSt11char_traitsIcESaIcEEE(ptr noundef nonnull align 8 dereferenceable(56) %5, ptr noundef nonnull align 8 dereferenceable(32) %15)
          to label %17 unwind label %21

17:                                               ; preds = %11
  %18 = invoke noundef nonnull align 8 dereferenceable(56) ptr @_ZN6google8protobuf8internal10LogMessagelsEPKc(ptr noundef nonnull align 8 dereferenceable(56) %16, ptr noundef nonnull @.str.10)
          to label %19 unwind label %21

19:                                               ; preds = %17
  call void @llvm.lifetime.start.p0(i64 1, ptr nonnull %4) #25
  invoke void @_ZN6google8protobuf8internal11LogFinisheraSERNS1_10LogMessageE(ptr noundef nonnull align 1 dereferenceable(1) %4, ptr noundef nonnull align 8 dereferenceable(56) %18)
          to label %20 unwind label %23

20:                                               ; preds = %19
  call void @llvm.lifetime.end.p0(i64 1, ptr nonnull %4) #25
  call void @_ZN6google8protobuf8internal10LogMessageD1Ev(ptr noundef nonnull align 8 dereferenceable(56) %3) #25
  call void @llvm.lifetime.end.p0(i64 56, ptr nonnull %3) #25
  ret void

21:                                               ; preds = %6, %17, %11, %2
  %22 = landingpad { ptr, i32 }
          cleanup
  br label %25

23:                                               ; preds = %19
  %24 = landingpad { ptr, i32 }
          cleanup
  call void @llvm.lifetime.end.p0(i64 1, ptr nonnull %4) #25
  br label %25

25:                                               ; preds = %23, %21
  %.pn = phi { ptr, i32 } [ %24, %23 ], [ %22, %21 ]
  call void @_ZN6google8protobuf8internal10LogMessageD1Ev(ptr noundef nonnull align 8 dereferenceable(56) %3) #25
  call void @llvm.lifetime.end.p0(i64 56, ptr nonnull %3) #25
  resume { ptr, i32 } %.pn
}